target datalayout = "e-m:e-p270:32:32-p271:32:32-p272:64:64-i64:64-i128:128-f80:128-n8:16:32:64-S128"
target triple = "x86_64-pc-linux-gnu"

%struct.TT_GraphicsState_ = type { i16, i16, i16, %struct.FT_UnitVector_, %struct.FT_UnitVector_, %struct.FT_UnitVector_, i64, i64, i32, i8, i64, i64, i64, i16, i16, i8, i8, i32, i16, i16, i16 }
%struct.FT_UnitVector_ = type { i16, i16 }
%struct.TT_GlyphZoneRec_ = type { ptr, i16, i16, i16, i16, ptr, ptr, ptr, ptr, ptr, i16 }
%struct.FT_Size_Metrics_ = type { i16, i16, i64, i64, i64, i64, i64, i64 }
%struct.TT_Size_Metrics_ = type { i64, i64, i16, i64, i64, [4 x i64], i8, i8, i8 }
%struct.TT_CodeRange_ = type { ptr, i64 }
%struct.TT_ExecContextRec_ = type { ptr, ptr, ptr, i32, i64, i64, ptr, i64, i64, %struct.TT_GlyphZoneRec_, %struct.TT_GlyphZoneRec_, %struct.TT_GlyphZoneRec_, %struct.TT_GlyphZoneRec_, %struct.TT_GlyphZoneRec_, i64, %struct.FT_Size_Metrics_, %struct.TT_Size_Metrics_, %struct.TT_GraphicsState_, i32, i32, ptr, i64, i64, i8, i32, i8, i64, ptr, i64, ptr, i32, ptr, i32, i32, ptr, i32, i32, ptr, i32, i32, i32, i32, ptr, i16, i16, [3 x %struct.TT_CodeRange_], i16, ptr, i16, ptr, i64, i64, i64, i8, %struct.TT_GraphicsState_, i8, i8, i64, ptr, ptr, ptr, ptr, ptr, ptr, ptr, ptr, ptr, ptr, i8, i8, i8, i8, i8, i8, i8, i64, i64, i64, i64 }

; Function Attrs: nounwind uwtable
define internal void @SetSuperRound(ptr noundef %0, i16 noundef signext %1, i64 noundef %2) #0 {
  %4 = alloca ptr, align 8
  %5 = alloca i16, align 2
  %6 = alloca i64, align 8
  store ptr %0, ptr %4, align 8
  store i16 %1, ptr %5, align 2
  store i64 %2, ptr %6, align 8
  %7 = load i64, ptr %6, align 8
  %8 = and i64 %7, 192
  %9 = trunc i64 %8 to i32
  switch i32 %9, label %34 [
    i32 0, label %10
    i32 64, label %17
    i32 128, label %22
    i32 192, label %29
  ]

10:                                               ; preds = %3
  %11 = load i16, ptr %5, align 2
  %12 = sext i16 %11 to i32
  %13 = sdiv i32 %12, 2
  %14 = sext i32 %13 to i64
  %15 = load ptr, ptr %4, align 8
  %16 = getelementptr inbounds %struct.TT_ExecContextRec_, ptr %15, i32 0, i32 50
  store i64 %14, ptr %16, align 8
  br label %34

17:                                               ; preds = %3
  %18 = load i16, ptr %5, align 2
  %19 = sext i16 %18 to i64
  %20 = load ptr, ptr %4, align 8
  %21 = getelementptr inbounds %struct.TT_ExecContextRec_, ptr %20, i32 0, i32 50
  store i64 %19, ptr %21, align 8
  br label %34

22:                                               ; preds = %3
  %23 = load i16, ptr %5, align 2
  %24 = sext i16 %23 to i32
  %25 = mul nsw i32 %24, 2
  %26 = sext i32 %25 to i64
  %27 = load ptr, ptr %4, align 8
  %28 = getelementptr inbounds %struct.TT_ExecContextRec_, ptr %27, i32 0, i32 50
  store i64 %26, ptr %28, align 8
  br label %34

29:                                               ; preds = %3
  %30 = load i16, ptr %5, align 2
  %31 = sext i16 %30 to i64
  %32 = load ptr, ptr %4, align 8
  %33 = getelementptr inbounds %struct.TT_ExecContextRec_, ptr %32, i32 0, i32 50
  store i64 %31, ptr %33, align 8
  br label %34

34:                                               ; preds = %29, %22, %17, %10, %3
  %35 = load i64, ptr %6, align 8
  %36 = and i64 %35, 48
  %37 = trunc i64 %36 to i32
  switch i32 %37, label %63 [
    i32 0, label %38
    i32 16, label %41
    i32 32, label %48
    i32 48, label %55
  ]

38:                                               ; preds = %34
  %39 = load ptr, ptr %4, align 8
  %40 = getelementptr inbounds %struct.TT_ExecContextRec_, ptr %39, i32 0, i32 51
  store i64 0, ptr %40, align 8
  br label %63

41:                                               ; preds = %34
  %42 = load ptr, ptr %4, align 8
  %43 = getelementptr inbounds %struct.TT_ExecContextRec_, ptr %42, i32 0, i32 50
  %44 = load i64, ptr %43, align 8
  %45 = sdiv i64 %44, 4
  %46 = load ptr, ptr %4, align 8
  %47 = getelementptr inbounds %struct.TT_ExecContextRec_, ptr %46, i32 0, i32 51
  store i64 %45, ptr %47, align 8
  br label %63

48:                                               ; preds = %34
  %49 = load ptr, ptr %4, align 8
  %50 = getelementptr inbounds %struct.TT_ExecContextRec_, ptr %49, i32 0, i32 50
  %51 = load i64, ptr %50, align 8
  %52 = sdiv i64 %51, 2
  %53 = load ptr, ptr %4, align 8
  %54 = getelementptr inbounds %struct.TT_ExecContextRec_, ptr %53, i32 0, i32 51
  store i64 %52, ptr %54, align 8
  br label %63

55:                                               ; preds = %34
  %56 = load ptr, ptr %4, align 8
  %57 = getelementptr inbounds %struct.TT_ExecContextRec_, ptr %56, i32 0, i32 50
  %58 = load i64, ptr %57, align 8
  %59 = mul nsw i64 %58, 3
  %60 = sdiv i64 %59, 4
  %61 = load ptr, ptr %4, align 8
  %62 = getelementptr inbounds %struct.TT_ExecContextRec_, ptr %61, i32 0, i32 51
  store i64 %60, ptr %62, align 8
  br label %63

63:                                               ; preds = %55, %48, %41, %38, %34
  %64 = load i64, ptr %6, align 8
  %65 = and i64 %64, 15
  %66 = icmp eq i64 %65, 0
  br i1 %66, label %67, label %74

67:                                               ; preds = %63
  %68 = load ptr, ptr %4, align 8
  %69 = getelementptr inbounds %struct.TT_ExecContextRec_, ptr %68, i32 0, i32 50
  %70 = load i64, ptr %69, align 8
  %71 = sub nsw i64 %70, 1
  %72 = load ptr, ptr %4, align 8
  %73 = getelementptr inbounds %struct.TT_ExecContextRec_, ptr %72, i32 0, i32 52
  store i64 %71, ptr %73, align 8
  br label %87

74:                                               ; preds = %63
  %75 = load i64, ptr %6, align 8
  %76 = and i64 %75, 15
  %77 = trunc i64 %76 to i32
  %78 = sub nsw i32 %77, 4
  %79 = sext i32 %78 to i64
  %80 = load ptr, ptr %4, align 8
  %81 = getelementptr inbounds %struct.TT_ExecContextRec_, ptr %80, i32 0, i32 50
  %82 = load i64, ptr %81, align 8
  %83 = mul nsw i64 %79, %82
  %84 = sdiv i64 %83, 8
  %85 = load ptr, ptr %4, align 8
  %86 = getelementptr inbounds %struct.TT_ExecContextRec_, ptr %85, i32 0, i32 52
  store i64 %84, ptr %86, align 8
  br label %87

87:                                               ; preds = %74, %67
  %88 = load ptr, ptr %4, align 8
  %89 = getelementptr inbounds %struct.TT_ExecContextRec_, ptr %88, i32 0, i32 50
  %90 = load i64, ptr %89, align 8
  %91 = ashr i64 %90, 8
  store i64 %91, ptr %89, align 8
  %92 = load ptr, ptr %4, align 8
  %93 = getelementptr inbounds %struct.TT_ExecContextRec_, ptr %92, i32 0, i32 51
  %94 = load i64, ptr %93, align 8
  %95 = ashr i64 %94, 8
  store i64 %95, ptr %93, align 8
  %96 = load ptr, ptr %4, align 8
  %97 = getelementptr inbounds %struct.TT_ExecContextRec_, ptr %96, i32 0, i32 52
  %98 = load i64, ptr %97, align 8
  %99 = ashr i64 %98, 8
  store i64 %99, ptr %97, align 8
  ret void
}

; Function Attrs: nounwind uwtable
define internal void @Ins_S45ROUND(ptr noundef %0, ptr noundef %1) #0 {
  %3 = alloca ptr, align 8
  %4 = alloca ptr, align 8
  store ptr %0, ptr %3, align 8
  store ptr %1, ptr %4, align 8
  %5 = load ptr, ptr %3, align 8
  %6 = load ptr, ptr %4, align 8
  %7 = getelementptr inbounds i64, ptr %6, i64 0
  %8 = load i64, ptr %7, align 8
  call void @SetSuperRound(ptr noundef %5, i16 noundef signext 11585, i64 noundef %8)
  %9 = load ptr, ptr %3, align 8
  %10 = getelementptr inbounds %struct.TT_ExecContextRec_, ptr %9, i32 0, i32 17
  %11 = getelementptr inbounds %struct.TT_GraphicsState_, ptr %10, i32 0, i32 8
  store i32 7, ptr %11, align 8
  %12 = load ptr, ptr %3, align 8
  %13 = getelementptr inbounds %struct.TT_ExecContextRec_, ptr %12, i32 0, i32 58
  store ptr @Round_Super_45, ptr %13, align 8
  ret void
}