; Function Attrs: mustprogress nofree norecurse nosync nounwind willreturn memory(argmem: write) uwtable
define internal fastcc void @Ins_S45ROUND(ptr nocapture noundef writeonly %0, i64 %.0.val) unnamed_addr #0 {
switch.lookup:
  %1 = trunc i64 %.0.val to i32
  %2 = lshr i64 %.0.val, 6
  %3 = and i64 %2, 3
  %switch.gep = getelementptr inbounds [4 x i64], ptr @switch.table.Ins_S45ROUND, i64 0, i64 %3
  %switch.load = load i64, ptr %switch.gep, align 8
  %4 = lshr i32 %1, 4
  %5 = and i32 %4, 3
  switch i32 %5, label %default.unreachable [
    i32 0, label %13
    i32 1, label %6
    i32 2, label %8
    i32 3, label %10
  ]

default.unreachable:                              ; preds = %switch.lookup
  unreachable

6:                                                ; preds = %switch.lookup
  %7 = lshr i64 %switch.load, 10
  br label %13

8:                                                ; preds = %switch.lookup
  %9 = lshr i64 %switch.load, 9
  br label %13

10:                                               ; preds = %switch.lookup
  %11 = mul nuw nsw i64 %switch.load, 3
  %12 = lshr i64 %11, 10
  br label %13

13:                                               ; preds = %10, %8, %6, %switch.lookup
  %14 = phi i64 [ %12, %10 ], [ %9, %8 ], [ %7, %6 ], [ 0, %switch.lookup ]
  %15 = and i64 %.0.val, 15
  %16 = icmp eq i64 %15, 0
  br i1 %16, label %17, label %19

17:                                               ; preds = %13
  %18 = add nsw i64 %switch.load, -1
  br label %SetSuperRound.exit

19:                                               ; preds = %13
  %20 = add nuw nsw i64 %15, 4294967292
  %21 = mul nuw nsw i64 %switch.load, %20
  %.lhs.trunc.i = trunc i64 %21 to i32
  %22 = sdiv i32 %.lhs.trunc.i, 8
  %.sext.i = sext i32 %22 to i64
  br label %SetSuperRound.exit

SetSuperRound.exit:                               ; preds = %17, %19
  %.sink.i = phi i64 [ %18, %17 ], [ %.sext.i, %19 ]
  %23 = getelementptr inbounds i8, ptr %0, i64 888
  %24 = getelementptr inbounds i8, ptr %0, i64 872
  %25 = lshr i64 %switch.load, 8
  store i64 %25, ptr %24, align 8
  %26 = getelementptr inbounds i8, ptr %0, i64 880
  store i64 %14, ptr %26, align 8
  %27 = ashr i64 %.sink.i, 8
  store i64 %27, ptr %23, align 8
  %28 = getelementptr inbounds i8, ptr %0, i64 576
  store i32 7, ptr %28, align 8
  %29 = getelementptr inbounds i8, ptr %0, i64 1016
  store ptr @Round_Super_45, ptr %29, align 8
  ret void
}